; Function Attrs: mustprogress nofree nounwind memory(read, argmem: readwrite) uwtable
define void @_Z5ltrimPc(ptr noundef %0) local_unnamed_addr #12 {
  %2 = icmp eq ptr %0, null
  br i1 %2, label %.critedge.thread, label %.preheader24

.preheader24:                                     ; preds = %1
  %3 = load i8, ptr %0, align 1, !tbaa !4
  %.not25 = icmp eq i8 %3, 0
  br i1 %.not25, label %.critedge.thread, label %.lr.ph

.lr.ph:                                           ; preds = %.preheader24, %7
  %indvars.iv = phi i64 [ %indvars.iv.next, %7 ], [ 0, %.preheader24 ]
  %4 = phi i8 [ %10, %7 ], [ %3, %.preheader24 ]
  %.01826 = phi i32 [ %8, %7 ], [ 0, %.preheader24 ]
  %5 = sext i8 %4 to i32
  %6 = tail call i32 @isspace(i32 noundef %5) #24
  %.not21 = icmp eq i32 %6, 0
  br i1 %.not21, label %.critedge, label %7

7:                                                ; preds = %.lr.ph
  %indvars.iv.next = add nuw nsw i64 %indvars.iv, 1
  %8 = add nuw nsw i32 %.01826, 1
  %9 = getelementptr inbounds nuw i8, ptr %0, i64 %indvars.iv.next
  %10 = load i8, ptr %9, align 1, !tbaa !4
  %.not = icmp eq i8 %10, 0
  br i1 %.not, label %.preheader, label %.lr.ph, !llvm.loop !21

.critedge:                                        ; preds = %.lr.ph
  %11 = trunc nuw nsw i64 %indvars.iv to i32
  %.not22 = icmp eq i64 %indvars.iv, 0
  br i1 %.not22, label %.critedge.thread, label %.preheader

.preheader:                                       ; preds = %7, %.critedge
  %.018.lcssa40 = phi i32 [ %11, %.critedge ], [ %8, %7 ]
  %12 = zext nneg i32 %.018.lcssa40 to i64
  %13 = getelementptr inbounds nuw i8, ptr %0, i64 %12
  %14 = load i8, ptr %13, align 1, !tbaa !4
  %.not2329 = icmp eq i8 %14, 0
  br i1 %.not2329, label %._crit_edge, label %.lr.ph31.preheader

.lr.ph31.preheader:                               ; preds = %.preheader
  %15 = sext i32 %.018.lcssa40 to i64
  br label %.lr.ph31

.lr.ph31:                                         ; preds = %.lr.ph31.preheader, %.lr.ph31
  %indvars.iv33 = phi i64 [ %15, %.lr.ph31.preheader ], [ %indvars.iv.next34, %.lr.ph31 ]
  %16 = phi i8 [ %14, %.lr.ph31.preheader ], [ %20, %.lr.ph31 ]
  %17 = sub nuw nsw i64 %indvars.iv33, %15
  %18 = getelementptr inbounds i8, ptr %0, i64 %17
  store i8 %16, ptr %18, align 1, !tbaa !4
  %indvars.iv.next34 = add nuw nsw i64 %indvars.iv33, 1
  %19 = getelementptr inbounds nuw i8, ptr %0, i64 %indvars.iv.next34
  %20 = load i8, ptr %19, align 1, !tbaa !4
  %.not23 = icmp eq i8 %20, 0
  br i1 %.not23, label %._crit_edge.loopexit, label %.lr.ph31, !llvm.loop !22

._crit_edge.loopexit:                             ; preds = %.lr.ph31
  %21 = trunc nsw i64 %indvars.iv.next34 to i32
  br label %._crit_edge

._crit_edge:                                      ; preds = %._crit_edge.loopexit, %.preheader
  %.0.lcssa = phi i32 [ %.018.lcssa40, %.preheader ], [ %21, %._crit_edge.loopexit ]
  %22 = sub nsw i32 %.0.lcssa, %.018.lcssa40
  %23 = sext i32 %22 to i64
  %24 = getelementptr inbounds i8, ptr %0, i64 %23
  store i8 0, ptr %24, align 1, !tbaa !4
  br label %.critedge.thread

.critedge.thread:                                 ; preds = %.preheader24, %.critedge, %._crit_edge, %1
  ret void
}